; Function Attrs: mustprogress nofree norecurse nosync nounwind willreturn memory(argmem: readwrite) uwtable
define hidden void @_ZN13psort_dt_declC2EjjR13pdecl_managerRK6symbol(ptr nocapture noundef nonnull writeonly align 8 dereferenceable(48) %this, i32 noundef %id, i32 noundef %num_params, ptr nocapture nonnull readnone align 8 %m, ptr nocapture noundef nonnull readonly align 8 dereferenceable(8) %n) unnamed_addr #4 align 2 {
entry:
  %m_id.i.i = getelementptr inbounds i8, ptr %this, i64 8
  store i32 %id, ptr %m_id.i.i, align 8
  %m_num_params.i.i = getelementptr inbounds i8, ptr %this, i64 12
  store i32 %num_params, ptr %m_num_params.i.i, align 4
  %m_ref_count.i.i = getelementptr inbounds i8, ptr %this, i64 16
  store i32 0, ptr %m_ref_count.i.i, align 8
  store ptr getelementptr inbounds ({ [13 x ptr] }, ptr @_ZTV10psort_decl, i64 0, i32 0, i64 2), ptr %this, align 8
  %m_name.i = getelementptr inbounds i8, ptr %this, i64 24
  %0 = load i64, ptr %n, align 8
  store i64 %0, ptr %m_name.i, align 8
  %m_psort_kind.i = getelementptr inbounds i8, ptr %this, i64 32
  %m_inst_cache.i = getelementptr inbounds i8, ptr %this, i64 40
  store ptr null, ptr %m_inst_cache.i, align 8
  store ptr getelementptr inbounds ({ [13 x ptr] }, ptr @_ZTV13psort_dt_decl, i64 0, i32 0, i64 2), ptr %this, align 8
  store i32 3, ptr %m_psort_kind.i, align 8
  ret void
}